target datalayout = "e-m:e-p270:32:32-p271:32:32-p272:64:64-i64:64-i128:128-f80:128-n8:16:32:64-S128"
target triple = "x86_64-pc-linux-gnu"

%struct.Aig_Obj_t_ = type { %union.anon, ptr, ptr, i64, i32, i32, %union.anon.0 }
%union.anon = type { ptr }
%union.anon.0 = type { ptr }
%struct.Aig_Man_t_ = type { ptr, ptr, ptr, ptr, ptr, ptr, ptr, %struct.Aig_Obj_t_, i32, i32, i32, i32, i32, i32, [7 x i32], i32, ptr, i32, ptr, i32, ptr, i32, i32, i32, ptr, i32, i32, i32, i32, i32, ptr, ptr, i32, ptr, ptr, i32, ptr, ptr, i32, i32, i32, ptr, ptr, ptr, ptr, ptr, ptr, ptr, ptr, ptr, ptr, ptr, ptr, ptr, ptr, i32, ptr, ptr, ptr, ptr, i32, i64, i64, i64, ptr, ptr }
%struct.Iso_Man_t_ = type { ptr, ptr, i32, i32, i32, i32, i32, i32, ptr, ptr, ptr, ptr, ptr, i64, i64, i64, i64, i64 }
%struct.Vec_Ptr_t_ = type { i32, i32, ptr }
%struct.Iso_Obj_t_ = type { i32, i32, i32, i32, i32, i32 }

@.str.23 = private unnamed_addr constant [15 x i8] c"Best level %d\0A\00", align 1

; Function Attrs: inlinehint nounwind uwtable
define internal i32 @Aig_IsComplement(ptr noundef %0) #4 {
  %2 = alloca ptr, align 8
  store ptr %0, ptr %2, align 8, !tbaa !23
  %3 = load ptr, ptr %2, align 8, !tbaa !23
  %4 = ptrtoint ptr %3 to i64
  %5 = and i64 %4, 1
  %6 = trunc i64 %5 to i32
  ret i32 %6
}

; Function Attrs: inlinehint nounwind uwtable
define internal ptr @Aig_Regular(ptr noundef %0) #4 {
  %2 = alloca ptr, align 8
  store ptr %0, ptr %2, align 8, !tbaa !23
  %3 = load ptr, ptr %2, align 8, !tbaa !23
  %4 = ptrtoint ptr %3 to i64
  %5 = and i64 %4, -2
  %6 = inttoptr i64 %5 to ptr
  ret ptr %6
}

; Function Attrs: inlinehint nounwind uwtable
define internal i32 @Aig_ObjFaninC1(ptr noundef %0) #4 {
  %2 = alloca ptr, align 8
  store ptr %0, ptr %2, align 8, !tbaa !23
  %3 = load ptr, ptr %2, align 8, !tbaa !23
  %4 = getelementptr inbounds nuw %struct.Aig_Obj_t_, ptr %3, i32 0, i32 2
  %5 = load ptr, ptr %4, align 8, !tbaa !39
  %6 = call i32 @Aig_IsComplement(ptr noundef %5)
  ret i32 %6
}

; Function Attrs: inlinehint nounwind uwtable
define internal i32 @Aig_ObjFaninC0(ptr noundef %0) #4 {
  %2 = alloca ptr, align 8
  store ptr %0, ptr %2, align 8, !tbaa !23
  %3 = load ptr, ptr %2, align 8, !tbaa !23
  %4 = getelementptr inbounds nuw %struct.Aig_Obj_t_, ptr %3, i32 0, i32 1
  %5 = load ptr, ptr %4, align 8, !tbaa !38
  %6 = call i32 @Aig_IsComplement(ptr noundef %5)
  ret i32 %6
}

; Function Attrs: inlinehint nounwind uwtable
define internal ptr @Aig_ObjFanin1(ptr noundef %0) #4 {
  %2 = alloca ptr, align 8
  store ptr %0, ptr %2, align 8, !tbaa !23
  %3 = load ptr, ptr %2, align 8, !tbaa !23
  %4 = getelementptr inbounds nuw %struct.Aig_Obj_t_, ptr %3, i32 0, i32 2
  %5 = load ptr, ptr %4, align 8, !tbaa !39
  %6 = call ptr @Aig_Regular(ptr noundef %5)
  ret ptr %6
}

; Function Attrs: inlinehint nounwind uwtable
define internal ptr @Aig_ObjFanin0(ptr noundef %0) #4 {
  %2 = alloca ptr, align 8
  store ptr %0, ptr %2, align 8, !tbaa !23
  %3 = load ptr, ptr %2, align 8, !tbaa !23
  %4 = getelementptr inbounds nuw %struct.Aig_Obj_t_, ptr %3, i32 0, i32 1
  %5 = load ptr, ptr %4, align 8, !tbaa !38
  %6 = call ptr @Aig_Regular(ptr noundef %5)
  ret ptr %6
}

; Function Attrs: inlinehint nounwind uwtable
define internal void @Aig_ObjSetTravIdCurrent(ptr noundef %0, ptr noundef %1) #4 {
  %3 = alloca ptr, align 8
  %4 = alloca ptr, align 8
  store ptr %0, ptr %3, align 8, !tbaa !21
  store ptr %1, ptr %4, align 8, !tbaa !23
  %5 = load ptr, ptr %3, align 8, !tbaa !21
  %6 = getelementptr inbounds nuw %struct.Aig_Man_t_, ptr %5, i32 0, i32 38
  %7 = load i32, ptr %6, align 8, !tbaa !29
  %8 = load ptr, ptr %4, align 8, !tbaa !23
  %9 = getelementptr inbounds nuw %struct.Aig_Obj_t_, ptr %8, i32 0, i32 4
  store i32 %7, ptr %9, align 8, !tbaa !27
  ret void
}

; Function Attrs: inlinehint nounwind uwtable
define internal i32 @Aig_ObjIsTravIdCurrent(ptr noundef %0, ptr noundef %1) #4 {
  %3 = alloca ptr, align 8
  %4 = alloca ptr, align 8
  store ptr %0, ptr %3, align 8, !tbaa !21
  store ptr %1, ptr %4, align 8, !tbaa !23
  %5 = load ptr, ptr %4, align 8, !tbaa !23
  %6 = getelementptr inbounds nuw %struct.Aig_Obj_t_, ptr %5, i32 0, i32 4
  %7 = load i32, ptr %6, align 8, !tbaa !27
  %8 = load ptr, ptr %3, align 8, !tbaa !21
  %9 = getelementptr inbounds nuw %struct.Aig_Man_t_, ptr %8, i32 0, i32 38
  %10 = load i32, ptr %9, align 8, !tbaa !29
  %11 = icmp eq i32 %7, %10
  %12 = zext i1 %11 to i32
  ret i32 %12
}

; Function Attrs: inlinehint nounwind uwtable
define internal i32 @Aig_ObjIsCi(ptr noundef %0) #4 {
  %2 = alloca ptr, align 8
  store ptr %0, ptr %2, align 8, !tbaa !23
  %3 = load ptr, ptr %2, align 8, !tbaa !23
  %4 = getelementptr inbounds nuw %struct.Aig_Obj_t_, ptr %3, i32 0, i32 3
  %5 = load i64, ptr %4, align 8
  %6 = and i64 %5, 7
  %7 = trunc i64 %6 to i32
  %8 = icmp eq i32 %7, 2
  %9 = zext i1 %8 to i32
  ret i32 %9
}

; Function Attrs: nounwind uwtable
define void @Iso_ManObjCount_rec(ptr noundef %0, ptr noundef %1, ptr noundef %2, ptr noundef %3) #0 {
  %5 = alloca ptr, align 8
  %6 = alloca ptr, align 8
  %7 = alloca ptr, align 8
  %8 = alloca ptr, align 8
  store ptr %0, ptr %5, align 8, !tbaa !21
  store ptr %1, ptr %6, align 8, !tbaa !23
  store ptr %2, ptr %7, align 8, !tbaa !25
  store ptr %3, ptr %8, align 8, !tbaa !25
  %9 = load ptr, ptr %6, align 8, !tbaa !23
  %10 = call i32 @Aig_ObjIsCi(ptr noundef %9)
  %11 = icmp ne i32 %10, 0
  br i1 %11, label %12, label %13

12:                                               ; preds = %4
  br label %43

13:                                               ; preds = %4
  %14 = load ptr, ptr %5, align 8, !tbaa !21
  %15 = load ptr, ptr %6, align 8, !tbaa !23
  %16 = call i32 @Aig_ObjIsTravIdCurrent(ptr noundef %14, ptr noundef %15)
  %17 = icmp ne i32 %16, 0
  br i1 %17, label %18, label %19

18:                                               ; preds = %13
  br label %43

19:                                               ; preds = %13
  %20 = load ptr, ptr %5, align 8, !tbaa !21
  %21 = load ptr, ptr %6, align 8, !tbaa !23
  call void @Aig_ObjSetTravIdCurrent(ptr noundef %20, ptr noundef %21)
  %22 = load ptr, ptr %5, align 8, !tbaa !21
  %23 = load ptr, ptr %6, align 8, !tbaa !23
  %24 = call ptr @Aig_ObjFanin0(ptr noundef %23)
  %25 = load ptr, ptr %7, align 8, !tbaa !25
  %26 = load ptr, ptr %8, align 8, !tbaa !25
  call void @Iso_ManObjCount_rec(ptr noundef %22, ptr noundef %24, ptr noundef %25, ptr noundef %26)
  %27 = load ptr, ptr %5, align 8, !tbaa !21
  %28 = load ptr, ptr %6, align 8, !tbaa !23
  %29 = call ptr @Aig_ObjFanin1(ptr noundef %28)
  %30 = load ptr, ptr %7, align 8, !tbaa !25
  %31 = load ptr, ptr %8, align 8, !tbaa !25
  call void @Iso_ManObjCount_rec(ptr noundef %27, ptr noundef %29, ptr noundef %30, ptr noundef %31)
  %32 = load ptr, ptr %6, align 8, !tbaa !23
  %33 = call i32 @Aig_ObjFaninC0(ptr noundef %32)
  %34 = load ptr, ptr %6, align 8, !tbaa !23
  %35 = call i32 @Aig_ObjFaninC1(ptr noundef %34)
  %36 = add nsw i32 %33, %35
  %37 = load ptr, ptr %8, align 8, !tbaa !25
  %38 = load i32, ptr %37, align 4, !tbaa !8
  %39 = add nsw i32 %38, %36
  store i32 %39, ptr %37, align 4, !tbaa !8
  %40 = load ptr, ptr %7, align 8, !tbaa !25
  %41 = load i32, ptr %40, align 4, !tbaa !8
  %42 = add nsw i32 %41, 1
  store i32 %42, ptr %40, align 4, !tbaa !8
  br label %43

43:                                               ; preds = %19, %18, %12
  ret void
}

; Function Attrs: inlinehint nounwind uwtable
define internal ptr @Aig_ManObj(ptr noundef %0, i32 noundef %1) #4 {
  %3 = alloca ptr, align 8
  %4 = alloca i32, align 4
  store ptr %0, ptr %3, align 8, !tbaa !21
  store i32 %1, ptr %4, align 4, !tbaa !8
  %5 = load ptr, ptr %3, align 8, !tbaa !21
  %6 = getelementptr inbounds nuw %struct.Aig_Man_t_, ptr %5, i32 0, i32 4
  %7 = load ptr, ptr %6, align 8, !tbaa !54
  %8 = icmp ne ptr %7, null
  br i1 %8, label %9, label %15

9:                                                ; preds = %2
  %10 = load ptr, ptr %3, align 8, !tbaa !21
  %11 = getelementptr inbounds nuw %struct.Aig_Man_t_, ptr %10, i32 0, i32 4
  %12 = load ptr, ptr %11, align 8, !tbaa !54
  %13 = load i32, ptr %4, align 4, !tbaa !8
  %14 = call ptr @Vec_PtrEntry(ptr noundef %12, i32 noundef %13)
  br label %16

15:                                               ; preds = %2
  br label %16

16:                                               ; preds = %15, %9
  %17 = phi ptr [ %14, %9 ], [ null, %15 ]
  ret ptr %17
}

; Function Attrs: inlinehint nounwind uwtable
define internal i32 @Iso_ObjId(ptr noundef %0, ptr noundef %1) #4 {
  %3 = alloca ptr, align 8
  %4 = alloca ptr, align 8
  store ptr %0, ptr %3, align 8, !tbaa !40
  store ptr %1, ptr %4, align 8, !tbaa !69
  %5 = load ptr, ptr %4, align 8, !tbaa !69
  %6 = load ptr, ptr %3, align 8, !tbaa !40
  %7 = getelementptr inbounds nuw %struct.Iso_Man_t_, ptr %6, i32 0, i32 1
  %8 = load ptr, ptr %7, align 8, !tbaa !46
  %9 = ptrtoint ptr %5 to i64
  %10 = ptrtoint ptr %8 to i64
  %11 = sub i64 %9, %10
  %12 = sdiv exact i64 %11, 24
  %13 = trunc i64 %12 to i32
  ret i32 %13
}

; Function Attrs: nounwind uwtable
define void @Iso_ManObjCount(ptr noundef %0, ptr noundef %1, ptr noundef %2, ptr noundef %3) #0 {
  %5 = alloca ptr, align 8
  %6 = alloca ptr, align 8
  %7 = alloca ptr, align 8
  %8 = alloca ptr, align 8
  store ptr %0, ptr %5, align 8, !tbaa !21
  store ptr %1, ptr %6, align 8, !tbaa !23
  store ptr %2, ptr %7, align 8, !tbaa !25
  store ptr %3, ptr %8, align 8, !tbaa !25
  %9 = load ptr, ptr %8, align 8, !tbaa !25
  store i32 0, ptr %9, align 4, !tbaa !8
  %10 = load ptr, ptr %7, align 8, !tbaa !25
  store i32 0, ptr %10, align 4, !tbaa !8
  %11 = load ptr, ptr %5, align 8, !tbaa !21
  call void @Aig_ManIncrementTravId(ptr noundef %11)
  %12 = load ptr, ptr %5, align 8, !tbaa !21
  %13 = load ptr, ptr %6, align 8, !tbaa !23
  %14 = load ptr, ptr %7, align 8, !tbaa !25
  %15 = load ptr, ptr %8, align 8, !tbaa !25
  call void @Iso_ManObjCount_rec(ptr noundef %12, ptr noundef %13, ptr noundef %14, ptr noundef %15)
  ret void
}

; Function Attrs: inlinehint nounwind uwtable
define internal ptr @Iso_AigObj(ptr noundef %0, ptr noundef %1) #4 {
  %3 = alloca ptr, align 8
  %4 = alloca ptr, align 8
  store ptr %0, ptr %3, align 8, !tbaa !40
  store ptr %1, ptr %4, align 8, !tbaa !69
  %5 = load ptr, ptr %3, align 8, !tbaa !40
  %6 = getelementptr inbounds nuw %struct.Iso_Man_t_, ptr %5, i32 0, i32 0
  %7 = load ptr, ptr %6, align 8, !tbaa !42
  %8 = load ptr, ptr %3, align 8, !tbaa !40
  %9 = load ptr, ptr %4, align 8, !tbaa !69
  %10 = call i32 @Iso_ObjId(ptr noundef %8, ptr noundef %9)
  %11 = call ptr @Aig_ManObj(ptr noundef %7, i32 noundef %10)
  ret ptr %11
}

; Function Attrs: nounwind uwtable
define ptr @Iso_ManFindBestObj(ptr noundef %0, ptr noundef %1) #0 {
  %3 = alloca ptr, align 8
  %4 = alloca ptr, align 8
  %5 = alloca ptr, align 8
  %6 = alloca ptr, align 8
  %7 = alloca ptr, align 8
  %8 = alloca i32, align 4
  %9 = alloca i32, align 4
  %10 = alloca i32, align 4
  %11 = alloca i32, align 4
  %12 = alloca i32, align 4
  store ptr %0, ptr %4, align 8, !tbaa !40
  store ptr %1, ptr %5, align 8, !tbaa !69
  call void @llvm.lifetime.start.p0(i64 8, ptr %6) #11
  call void @llvm.lifetime.start.p0(i64 8, ptr %7) #11
  store ptr null, ptr %7, align 8, !tbaa !69
  call void @llvm.lifetime.start.p0(i64 4, ptr %8) #11
  store i32 -1, ptr %8, align 4, !tbaa !8
  call void @llvm.lifetime.start.p0(i64 4, ptr %9) #11
  call void @llvm.lifetime.start.p0(i64 4, ptr %10) #11
  store i32 -1, ptr %10, align 4, !tbaa !8
  call void @llvm.lifetime.start.p0(i64 4, ptr %11) #11
  %13 = load ptr, ptr %5, align 8, !tbaa !69
  %14 = load i32, ptr %13, align 4
  %15 = and i32 %14, 1073741823
  %16 = icmp eq i32 %15, 0
  br i1 %16, label %17, label %19

17:                                               ; preds = %2
  %18 = load ptr, ptr %5, align 8, !tbaa !69
  store ptr %18, ptr %3, align 8
  store i32 1, ptr %12, align 4
  br label %55

19:                                               ; preds = %2
  %20 = load ptr, ptr %5, align 8, !tbaa !69
  store ptr %20, ptr %6, align 8, !tbaa !69
  br label %21

21:                                               ; preds = %47, %19
  %22 = load ptr, ptr %6, align 8, !tbaa !69
  %23 = icmp ne ptr %22, null
  br i1 %23, label %24, label %53

24:                                               ; preds = %21
  %25 = load ptr, ptr %4, align 8, !tbaa !40
  %26 = getelementptr inbounds nuw %struct.Iso_Man_t_, ptr %25, i32 0, i32 0
  %27 = load ptr, ptr %26, align 8, !tbaa !42
  %28 = load ptr, ptr %4, align 8, !tbaa !40
  %29 = load ptr, ptr %6, align 8, !tbaa !69
  %30 = call ptr @Iso_AigObj(ptr noundef %28, ptr noundef %29)
  call void @Iso_ManObjCount(ptr noundef %27, ptr noundef %30, ptr noundef %9, ptr noundef %11)
  %31 = load i32, ptr %8, align 4, !tbaa !8
  %32 = load i32, ptr %9, align 4, !tbaa !8
  %33 = icmp slt i32 %31, %32
  br i1 %33, label %42, label %34

34:                                               ; preds = %24
  %35 = load i32, ptr %8, align 4, !tbaa !8
  %36 = load i32, ptr %9, align 4, !tbaa !8
  %37 = icmp eq i32 %35, %36
  br i1 %37, label %38, label %46

38:                                               ; preds = %34
  %39 = load i32, ptr %10, align 4, !tbaa !8
  %40 = load i32, ptr %11, align 4, !tbaa !8
  %41 = icmp slt i32 %39, %40
  br i1 %41, label %42, label %46

42:                                               ; preds = %38, %24
  %43 = load i32, ptr %9, align 4, !tbaa !8
  store i32 %43, ptr %8, align 4, !tbaa !8
  %44 = load i32, ptr %11, align 4, !tbaa !8
  store i32 %44, ptr %10, align 4, !tbaa !8
  %45 = load ptr, ptr %6, align 8, !tbaa !69
  store ptr %45, ptr %7, align 8, !tbaa !69
  br label %46

46:                                               ; preds = %42, %38, %34
  br label %47

47:                                               ; preds = %46
  %48 = load ptr, ptr %4, align 8, !tbaa !40
  %49 = load ptr, ptr %6, align 8, !tbaa !69
  %50 = getelementptr inbounds nuw %struct.Iso_Obj_t_, ptr %49, i32 0, i32 4
  %51 = load i32, ptr %50, align 4, !tbaa !72
  %52 = call ptr @Iso_ManObj(ptr noundef %48, i32 noundef %51)
  store ptr %52, ptr %6, align 8, !tbaa !69
  br label %21, !llvm.loop !105

53:                                               ; preds = %21
  %54 = load ptr, ptr %7, align 8, !tbaa !69
  store ptr %54, ptr %3, align 8
  store i32 1, ptr %12, align 4
  br label %55

55:                                               ; preds = %53, %17
  call void @llvm.lifetime.end.p0(i64 4, ptr %11) #11
  call void @llvm.lifetime.end.p0(i64 4, ptr %10) #11
  call void @llvm.lifetime.end.p0(i64 4, ptr %9) #11
  call void @llvm.lifetime.end.p0(i64 4, ptr %8) #11
  call void @llvm.lifetime.end.p0(i64 8, ptr %7) #11
  call void @llvm.lifetime.end.p0(i64 8, ptr %6) #11
  %56 = load ptr, ptr %3, align 8
  ret ptr %56
}

; Function Attrs: inlinehint nounwind uwtable
define internal ptr @Iso_ManObj(ptr noundef %0, i32 noundef %1) #4 {
  %3 = alloca ptr, align 8
  %4 = alloca i32, align 4
  store ptr %0, ptr %3, align 8, !tbaa !40
  store i32 %1, ptr %4, align 4, !tbaa !8
  %5 = load i32, ptr %4, align 4, !tbaa !8
  %6 = icmp ne i32 %5, 0
  br i1 %6, label %7, label %14

7:                                                ; preds = %2
  %8 = load ptr, ptr %3, align 8, !tbaa !40
  %9 = getelementptr inbounds nuw %struct.Iso_Man_t_, ptr %8, i32 0, i32 1
  %10 = load ptr, ptr %9, align 8, !tbaa !46
  %11 = load i32, ptr %4, align 4, !tbaa !8
  %12 = sext i32 %11 to i64
  %13 = getelementptr inbounds %struct.Iso_Obj_t_, ptr %10, i64 %12
  br label %15

14:                                               ; preds = %2
  br label %15

15:                                               ; preds = %14, %7
  %16 = phi ptr [ %13, %7 ], [ null, %14 ]
  ret ptr %16
}

; Function Attrs: inlinehint nounwind uwtable
define internal i32 @Vec_PtrSize(ptr noundef %0) #4 {
  %2 = alloca ptr, align 8
  store ptr %0, ptr %2, align 8, !tbaa !57
  %3 = load ptr, ptr %2, align 8, !tbaa !57
  %4 = getelementptr inbounds nuw %struct.Vec_Ptr_t_, ptr %3, i32 0, i32 1
  %5 = load i32, ptr %4, align 4, !tbaa !58
  ret i32 %5
}

; Function Attrs: inlinehint nounwind uwtable
define internal ptr @Vec_PtrEntry(ptr noundef %0, i32 noundef %1) #4 {
  %3 = alloca ptr, align 8
  %4 = alloca i32, align 4
  store ptr %0, ptr %3, align 8, !tbaa !57
  store i32 %1, ptr %4, align 4, !tbaa !8
  %5 = load ptr, ptr %3, align 8, !tbaa !57
  %6 = getelementptr inbounds nuw %struct.Vec_Ptr_t_, ptr %5, i32 0, i32 2
  %7 = load ptr, ptr %6, align 8, !tbaa !61
  %8 = load i32, ptr %4, align 4, !tbaa !8
  %9 = sext i32 %8 to i64
  %10 = getelementptr inbounds ptr, ptr %7, i64 %9
  %11 = load ptr, ptr %10, align 8, !tbaa !79
  ret ptr %11
}

; Function Attrs: nounwind uwtable
define void @Iso_ManBreakTies(ptr noundef %0, i32 noundef %1) #0 {
  %3 = alloca ptr, align 8
  %4 = alloca i32, align 4
  %5 = alloca i32, align 4
  %6 = alloca ptr, align 8
  %7 = alloca ptr, align 8
  %8 = alloca i32, align 4
  %9 = alloca i32, align 4
  store ptr %0, ptr %3, align 8, !tbaa !40
  store i32 %1, ptr %4, align 4, !tbaa !8
  call void @llvm.lifetime.start.p0(i64 4, ptr %5) #11
  store i32 0, ptr %5, align 4, !tbaa !8
  call void @llvm.lifetime.start.p0(i64 8, ptr %6) #11
  call void @llvm.lifetime.start.p0(i64 8, ptr %7) #11
  call void @llvm.lifetime.start.p0(i64 4, ptr %8) #11
  call void @llvm.lifetime.start.p0(i64 4, ptr %9) #11
  store i32 0, ptr %9, align 4, !tbaa !8
  %10 = load ptr, ptr %3, align 8, !tbaa !40
  %11 = getelementptr inbounds nuw %struct.Iso_Man_t_, ptr %10, i32 0, i32 10
  %12 = load ptr, ptr %11, align 8, !tbaa !50
  %13 = call ptr @Vec_PtrEntry(ptr noundef %12, i32 noundef 0)
  store ptr %13, ptr %6, align 8, !tbaa !69
  %14 = load ptr, ptr %6, align 8, !tbaa !69
  %15 = load i32, ptr %14, align 4
  %16 = and i32 %15, 1073741823
  store i32 %16, ptr %9, align 4, !tbaa !8
  %17 = load i32, ptr %4, align 4, !tbaa !8
  %18 = icmp ne i32 %17, 0
  br i1 %18, label %19, label %22

19:                                               ; preds = %2
  %20 = load i32, ptr %9, align 4, !tbaa !8
  %21 = call i32 (ptr, ...) @printf(ptr noundef @.str.23, i32 noundef %20)
  br label %22

22:                                               ; preds = %19, %2
  store i32 0, ptr %8, align 4, !tbaa !8
  br label %23

23:                                               ; preds = %101, %22
  %24 = load i32, ptr %8, align 4, !tbaa !8
  %25 = load ptr, ptr %3, align 8, !tbaa !40
  %26 = getelementptr inbounds nuw %struct.Iso_Man_t_, ptr %25, i32 0, i32 10
  %27 = load ptr, ptr %26, align 8, !tbaa !50
  %28 = call i32 @Vec_PtrSize(ptr noundef %27)
  %29 = icmp slt i32 %24, %28
  br i1 %29, label %30, label %36

30:                                               ; preds = %23
  %31 = load ptr, ptr %3, align 8, !tbaa !40
  %32 = getelementptr inbounds nuw %struct.Iso_Man_t_, ptr %31, i32 0, i32 10
  %33 = load ptr, ptr %32, align 8, !tbaa !50
  %34 = load i32, ptr %8, align 4, !tbaa !8
  %35 = call ptr @Vec_PtrEntry(ptr noundef %33, i32 noundef %34)
  store ptr %35, ptr %6, align 8, !tbaa !69
  br label %36

36:                                               ; preds = %30, %23
  %37 = phi i1 [ false, %23 ], [ true, %30 ]
  br i1 %37, label %38, label %104

38:                                               ; preds = %36
  %39 = load ptr, ptr %6, align 8, !tbaa !69
  %40 = load i32, ptr %39, align 4
  %41 = and i32 %40, 1073741823
  %42 = load i32, ptr %9, align 4, !tbaa !8
  %43 = icmp slt i32 %41, %42
  br i1 %43, label %44, label %45

44:                                               ; preds = %38
  br label %104

45:                                               ; preds = %38
  %46 = load i32, ptr %5, align 4, !tbaa !8
  %47 = icmp ne i32 %46, 0
  br i1 %47, label %67, label %48

48:                                               ; preds = %45
  %49 = load ptr, ptr %6, align 8, !tbaa !69
  store ptr %49, ptr %7, align 8, !tbaa !69
  br label %50

50:                                               ; preds = %60, %48
  %51 = load ptr, ptr %7, align 8, !tbaa !69
  %52 = icmp ne ptr %51, null
  br i1 %52, label %53, label %66

53:                                               ; preds = %50
  %54 = load ptr, ptr %3, align 8, !tbaa !40
  %55 = getelementptr inbounds nuw %struct.Iso_Man_t_, ptr %54, i32 0, i32 2
  %56 = load i32, ptr %55, align 8, !tbaa !53
  %57 = add nsw i32 %56, 1
  store i32 %57, ptr %55, align 8, !tbaa !53
  %58 = load ptr, ptr %7, align 8, !tbaa !69
  %59 = getelementptr inbounds nuw %struct.Iso_Obj_t_, ptr %58, i32 0, i32 5
  store i32 %56, ptr %59, align 4, !tbaa !77
  br label %60

60:                                               ; preds = %53
  %61 = load ptr, ptr %3, align 8, !tbaa !40
  %62 = load ptr, ptr %7, align 8, !tbaa !69
  %63 = getelementptr inbounds nuw %struct.Iso_Obj_t_, ptr %62, i32 0, i32 4
  %64 = load i32, ptr %63, align 4, !tbaa !72
  %65 = call ptr @Iso_ManObj(ptr noundef %61, i32 noundef %64)
  store ptr %65, ptr %7, align 8, !tbaa !69
  br label %50, !llvm.loop !106

66:                                               ; preds = %50
  br label %101

67:                                               ; preds = %45
  %68 = load ptr, ptr %6, align 8, !tbaa !69
  %69 = load i32, ptr %68, align 4
  %70 = and i32 %69, 1073741823
  %71 = icmp eq i32 %70, 0
  br i1 %71, label %72, label %91

72:                                               ; preds = %67
  %73 = load ptr, ptr %6, align 8, !tbaa !69
  store ptr %73, ptr %7, align 8, !tbaa !69
  br label %74

74:                                               ; preds = %84, %72
  %75 = load ptr, ptr %7, align 8, !tbaa !69
  %76 = icmp ne ptr %75, null
  br i1 %76, label %77, label %90

77:                                               ; preds = %74
  %78 = load ptr, ptr %3, align 8, !tbaa !40
  %79 = getelementptr inbounds nuw %struct.Iso_Man_t_, ptr %78, i32 0, i32 2
  %80 = load i32, ptr %79, align 8, !tbaa !53
  %81 = add nsw i32 %80, 1
  store i32 %81, ptr %79, align 8, !tbaa !53
  %82 = load ptr, ptr %7, align 8, !tbaa !69
  %83 = getelementptr inbounds nuw %struct.Iso_Obj_t_, ptr %82, i32 0, i32 5
  store i32 %80, ptr %83, align 4, !tbaa !77
  br label %84

84:                                               ; preds = %77
  %85 = load ptr, ptr %3, align 8, !tbaa !40
  %86 = load ptr, ptr %7, align 8, !tbaa !69
  %87 = getelementptr inbounds nuw %struct.Iso_Obj_t_, ptr %86, i32 0, i32 4
  %88 = load i32, ptr %87, align 4, !tbaa !72
  %89 = call ptr @Iso_ManObj(ptr noundef %85, i32 noundef %88)
  store ptr %89, ptr %7, align 8, !tbaa !69
  br label %74, !llvm.loop !107

90:                                               ; preds = %74
  br label %101

91:                                               ; preds = %67
  %92 = load ptr, ptr %3, align 8, !tbaa !40
  %93 = load ptr, ptr %6, align 8, !tbaa !69
  %94 = call ptr @Iso_ManFindBestObj(ptr noundef %92, ptr noundef %93)
  store ptr %94, ptr %6, align 8, !tbaa !69
  %95 = load ptr, ptr %3, align 8, !tbaa !40
  %96 = getelementptr inbounds nuw %struct.Iso_Man_t_, ptr %95, i32 0, i32 2
  %97 = load i32, ptr %96, align 8, !tbaa !53
  %98 = add nsw i32 %97, 1
  store i32 %98, ptr %96, align 8, !tbaa !53
  %99 = load ptr, ptr %6, align 8, !tbaa !69
  %100 = getelementptr inbounds nuw %struct.Iso_Obj_t_, ptr %99, i32 0, i32 5
  store i32 %97, ptr %100, align 4, !tbaa !77
  br label %101

101:                                              ; preds = %91, %90, %66
  %102 = load i32, ptr %8, align 4, !tbaa !8
  %103 = add nsw i32 %102, 1
  store i32 %103, ptr %8, align 4, !tbaa !8
  br label %23, !llvm.loop !108

104:                                              ; preds = %44, %36
  call void @llvm.lifetime.end.p0(i64 4, ptr %9) #11
  call void @llvm.lifetime.end.p0(i64 4, ptr %8) #11
  call void @llvm.lifetime.end.p0(i64 8, ptr %7) #11
  call void @llvm.lifetime.end.p0(i64 8, ptr %6) #11
  call void @llvm.lifetime.end.p0(i64 4, ptr %5) #11
  ret void
}