; Function Attrs: nofree nounwind uwtable
define void @Iso_ManBreakTies(ptr noundef captures(none) %0, i32 noundef %1) local_unnamed_addr #14 {
  %3 = getelementptr inbounds nuw i8, ptr %0, i64 56
  %4 = load ptr, ptr %3, align 8, !tbaa !49
  %5 = getelementptr i8, ptr %4, i64 8
  %.val32 = load ptr, ptr %5, align 8, !tbaa !47
  %6 = load ptr, ptr %.val32, align 8, !tbaa !67
  %7 = load i32, ptr %6, align 4
  %8 = and i32 %7, 1073741823
  %.not = icmp eq i32 %1, 0
  br i1 %.not, label %11, label %9

9:                                                ; preds = %2
  %10 = tail call i32 (ptr, ...) @printf(ptr noundef nonnull dereferenceable(1) @.str.23, i32 noundef %8)
  %.pre = load ptr, ptr %3, align 8, !tbaa !49
  br label %11

11:                                               ; preds = %9, %2
  %12 = phi ptr [ %.pre, %9 ], [ %4, %2 ]
  %13 = getelementptr i8, ptr %12, i64 4
  %.val = load i32, ptr %13, align 4, !tbaa !38
  %14 = icmp sgt i32 %.val, 0
  br i1 %14, label %.lr.ph, label %.critedge

.lr.ph:                                           ; preds = %11
  %15 = getelementptr i8, ptr %12, i64 8
  %.val31 = load ptr, ptr %15, align 8, !tbaa !47
  %16 = getelementptr inbounds nuw i8, ptr %0, i64 16
  %17 = getelementptr inbounds nuw i8, ptr %0, i64 8
  %wide.trip.count = zext nneg i32 %.val to i64
  br label %18

18:                                               ; preds = %.lr.ph, %Iso_ManObj.exit.thread
  %indvars.iv = phi i64 [ 0, %.lr.ph ], [ %indvars.iv.next, %Iso_ManObj.exit.thread ]
  %19 = getelementptr inbounds nuw ptr, ptr %.val31, i64 %indvars.iv
  %20 = load ptr, ptr %19, align 8, !tbaa !67
  %21 = load i32, ptr %20, align 4
  %22 = and i32 %21, 1073741823
  %23 = icmp samesign ult i32 %22, %8
  br i1 %23, label %.critedge, label %.preheader

.preheader:                                       ; preds = %18
  %.promoted = load i32, ptr %16, align 8, !tbaa !52
  %24 = add nsw i32 %.promoted, 1
  %25 = getelementptr inbounds nuw i8, ptr %20, i64 20
  store i32 %.promoted, ptr %25, align 4, !tbaa !74
  %26 = getelementptr inbounds nuw i8, ptr %20, i64 16
  %27 = load i32, ptr %26, align 4, !tbaa !65
  %.not.i38 = icmp eq i32 %27, 0
  br i1 %.not.i38, label %Iso_ManObj.exit.thread, label %Iso_ManObj.exit.preheader

Iso_ManObj.exit.preheader:                        ; preds = %.preheader
  %28 = load ptr, ptr %17, align 8, !tbaa !41
  br label %Iso_ManObj.exit

Iso_ManObj.exit:                                  ; preds = %Iso_ManObj.exit.preheader, %Iso_ManObj.exit
  %29 = phi i32 [ %36, %Iso_ManObj.exit ], [ %27, %Iso_ManObj.exit.preheader ]
  %30 = phi i32 [ %33, %Iso_ManObj.exit ], [ %24, %Iso_ManObj.exit.preheader ]
  %31 = sext i32 %29 to i64
  %32 = getelementptr inbounds %struct.Iso_Obj_t_, ptr %28, i64 %31
  %33 = add nsw i32 %30, 1
  %34 = getelementptr inbounds nuw i8, ptr %32, i64 20
  store i32 %30, ptr %34, align 4, !tbaa !74
  %35 = getelementptr inbounds nuw i8, ptr %32, i64 16
  %36 = load i32, ptr %35, align 4, !tbaa !65
  %.not.i = icmp eq i32 %36, 0
  br i1 %.not.i, label %Iso_ManObj.exit.thread, label %Iso_ManObj.exit, !llvm.loop !103

Iso_ManObj.exit.thread:                           ; preds = %Iso_ManObj.exit, %.preheader
  %.lcssa = phi i32 [ %24, %.preheader ], [ %33, %Iso_ManObj.exit ]
  store i32 %.lcssa, ptr %16, align 8, !tbaa !52
  %indvars.iv.next = add nuw nsw i64 %indvars.iv, 1
  %exitcond.not = icmp eq i64 %indvars.iv.next, %wide.trip.count
  br i1 %exitcond.not, label %.critedge, label %18, !llvm.loop !104

.critedge:                                        ; preds = %18, %Iso_ManObj.exit.thread, %11
  ret void
}